; Function Attrs: mustprogress uwtable
define void @_ZN21EditMutualCorrsPlugin16pickCurrentPointEv(ptr noundef nonnull align 8 dereferenceable(536) %0) local_unnamed_addr #9 align 2 personality ptr @__gxx_personality_v0 {
  %2 = alloca %class.QString, align 8
  %3 = alloca %class.QString, align 8
  %4 = alloca %class.QString, align 8
  %5 = alloca %class.QString, align 8
  %6 = getelementptr inbounds i8, ptr %0, i64 240
  call void @llvm.lifetime.start.p0(i64 8, ptr nonnull %4)
  call void @_ZN7QString15fromUtf8_helperEPKci(ptr dead_on_unwind nonnull writable sret(%class.QString) align 8 %4, ptr noundef nonnull @.str.39, i32 noundef 0)
  %7 = load ptr, ptr %6, align 8
  %8 = load ptr, ptr %4, align 8
  store ptr %8, ptr %6, align 8
  store ptr %7, ptr %4, align 8
  %9 = load atomic i32, ptr %7 monotonic, align 4
  switch i32 %9, label %_ZN9QtPrivate8RefCount5derefEv.exit.i.i [
    i32 0, label %_ZN9QtPrivate8RefCount5derefEv.exit.thread2.i.i
    i32 -1, label %_ZN7QStringaSEPKc.exit
  ]

_ZN9QtPrivate8RefCount5derefEv.exit.i.i:          ; preds = %1
  %10 = atomicrmw sub ptr %7, i32 1 seq_cst, align 4
  %.not.i.i = icmp eq i32 %10, 1
  br i1 %.not.i.i, label %_ZN9QtPrivate8RefCount5derefEv.exit._ZN9QtPrivate8RefCount5derefEv.exit.thread2_crit_edge.i.i, label %_ZN7QStringaSEPKc.exit

_ZN9QtPrivate8RefCount5derefEv.exit._ZN9QtPrivate8RefCount5derefEv.exit.thread2_crit_edge.i.i: ; preds = %_ZN9QtPrivate8RefCount5derefEv.exit.i.i
  %.pre.i.i = load ptr, ptr %4, align 8
  br label %_ZN9QtPrivate8RefCount5derefEv.exit.thread2.i.i

_ZN9QtPrivate8RefCount5derefEv.exit.thread2.i.i:  ; preds = %_ZN9QtPrivate8RefCount5derefEv.exit._ZN9QtPrivate8RefCount5derefEv.exit.thread2_crit_edge.i.i, %1
  %11 = phi ptr [ %.pre.i.i, %_ZN9QtPrivate8RefCount5derefEv.exit._ZN9QtPrivate8RefCount5derefEv.exit.thread2_crit_edge.i.i ], [ %7, %1 ]
  call void @_ZN10QArrayData10deallocateEPS_mm(ptr noundef %11, i64 noundef 2, i64 noundef 8) #21
  br label %_ZN7QStringaSEPKc.exit

_ZN7QStringaSEPKc.exit:                           ; preds = %1, %_ZN9QtPrivate8RefCount5derefEv.exit.i.i, %_ZN9QtPrivate8RefCount5derefEv.exit.thread2.i.i
  call void @llvm.lifetime.end.p0(i64 8, ptr nonnull %4)
  %12 = getelementptr inbounds i8, ptr %0, i64 56
  %13 = load ptr, ptr %12, align 8
  %14 = getelementptr inbounds i8, ptr %13, i64 48
  %15 = load ptr, ptr %14, align 8
  %16 = getelementptr inbounds i8, ptr %15, i64 64
  %17 = load ptr, ptr %16, align 8
  %18 = call noundef i32 @_ZNK12QTableWidget10currentRowEv(ptr noundef nonnull align 8 dereferenceable(48) %17)
  %19 = icmp eq i32 %18, -1
  br i1 %19, label %20, label %26

20:                                               ; preds = %_ZN7QStringaSEPKc.exit
  call void @llvm.lifetime.start.p0(i64 8, ptr nonnull %3)
  call void @_ZN7QString15fromUtf8_helperEPKci(ptr dead_on_unwind nonnull writable sret(%class.QString) align 8 %3, ptr noundef nonnull @.str.46, i32 noundef 17)
  %21 = load ptr, ptr %6, align 8
  %22 = load ptr, ptr %3, align 8
  store ptr %22, ptr %6, align 8
  store ptr %21, ptr %3, align 8
  %23 = load atomic i32, ptr %21 monotonic, align 4
  switch i32 %23, label %_ZN9QtPrivate8RefCount5derefEv.exit.i.i4 [
    i32 0, label %_ZN9QtPrivate8RefCount5derefEv.exit.thread2.i.i3
    i32 -1, label %_ZN7QStringaSEPKc.exit8
  ]

_ZN9QtPrivate8RefCount5derefEv.exit.i.i4:         ; preds = %20
  %24 = atomicrmw sub ptr %21, i32 1 seq_cst, align 4
  %.not.i.i5 = icmp eq i32 %24, 1
  br i1 %.not.i.i5, label %_ZN9QtPrivate8RefCount5derefEv.exit._ZN9QtPrivate8RefCount5derefEv.exit.thread2_crit_edge.i.i6, label %_ZN7QStringaSEPKc.exit8

_ZN9QtPrivate8RefCount5derefEv.exit._ZN9QtPrivate8RefCount5derefEv.exit.thread2_crit_edge.i.i6: ; preds = %_ZN9QtPrivate8RefCount5derefEv.exit.i.i4
  %.pre.i.i7 = load ptr, ptr %3, align 8
  br label %_ZN9QtPrivate8RefCount5derefEv.exit.thread2.i.i3

_ZN9QtPrivate8RefCount5derefEv.exit.thread2.i.i3: ; preds = %_ZN9QtPrivate8RefCount5derefEv.exit._ZN9QtPrivate8RefCount5derefEv.exit.thread2_crit_edge.i.i6, %20
  %25 = phi ptr [ %.pre.i.i7, %_ZN9QtPrivate8RefCount5derefEv.exit._ZN9QtPrivate8RefCount5derefEv.exit.thread2_crit_edge.i.i6 ], [ %21, %20 ]
  call void @_ZN10QArrayData10deallocateEPS_mm(ptr noundef %25, i64 noundef 2, i64 noundef 8) #21
  br label %_ZN7QStringaSEPKc.exit8

_ZN7QStringaSEPKc.exit8:                          ; preds = %20, %_ZN9QtPrivate8RefCount5derefEv.exit.i.i4, %_ZN9QtPrivate8RefCount5derefEv.exit.thread2.i.i3
  call void @llvm.lifetime.end.p0(i64 8, ptr nonnull %3)
  br label %41

26:                                               ; preds = %_ZN7QStringaSEPKc.exit
  %27 = call noundef ptr @_ZN7QString16fromAscii_helperEPKci(ptr noundef nonnull @.str.47, i32 noundef 10)
  store ptr %27, ptr %5, align 8
  invoke void @_ZN21EditMutualCorrsPlugin13askSurfacePosE7QString(ptr noundef nonnull align 8 dereferenceable(536) %0, ptr noundef nonnull %5)
          to label %28 unwind label %42

28:                                               ; preds = %26
  %29 = load ptr, ptr %5, align 8
  %30 = load atomic i32, ptr %29 monotonic, align 4
  switch i32 %30, label %_ZN9QtPrivate8RefCount5derefEv.exit.i [
    i32 0, label %_ZN9QtPrivate8RefCount5derefEv.exit.thread2.i
    i32 -1, label %_ZN7QStringD2Ev.exit
  ]

_ZN9QtPrivate8RefCount5derefEv.exit.i:            ; preds = %28
  %31 = atomicrmw sub ptr %29, i32 1 seq_cst, align 4
  %.not.i = icmp eq i32 %31, 1
  br i1 %.not.i, label %_ZN9QtPrivate8RefCount5derefEv.exit._ZN9QtPrivate8RefCount5derefEv.exit.thread2_crit_edge.i, label %_ZN7QStringD2Ev.exit

_ZN9QtPrivate8RefCount5derefEv.exit._ZN9QtPrivate8RefCount5derefEv.exit.thread2_crit_edge.i: ; preds = %_ZN9QtPrivate8RefCount5derefEv.exit.i
  %.pre.i = load ptr, ptr %5, align 8
  br label %_ZN9QtPrivate8RefCount5derefEv.exit.thread2.i

_ZN9QtPrivate8RefCount5derefEv.exit.thread2.i:    ; preds = %_ZN9QtPrivate8RefCount5derefEv.exit._ZN9QtPrivate8RefCount5derefEv.exit.thread2_crit_edge.i, %28
  %32 = phi ptr [ %.pre.i, %_ZN9QtPrivate8RefCount5derefEv.exit._ZN9QtPrivate8RefCount5derefEv.exit.thread2_crit_edge.i ], [ %29, %28 ]
  call void @_ZN10QArrayData10deallocateEPS_mm(ptr noundef %32, i64 noundef 2, i64 noundef 8) #21
  br label %_ZN7QStringD2Ev.exit

_ZN7QStringD2Ev.exit:                             ; preds = %28, %_ZN9QtPrivate8RefCount5derefEv.exit.i, %_ZN9QtPrivate8RefCount5derefEv.exit.thread2.i
  %33 = getelementptr inbounds i8, ptr %0, i64 224
  call void @llvm.lifetime.start.p0(i64 8, ptr nonnull %2)
  call void @_ZN7QString15fromUtf8_helperEPKci(ptr dead_on_unwind nonnull writable sret(%class.QString) align 8 %2, ptr noundef nonnull @.str.48, i32 noundef 35)
  %34 = load ptr, ptr %33, align 8
  %35 = load ptr, ptr %2, align 8
  store ptr %35, ptr %33, align 8
  store ptr %34, ptr %2, align 8
  %36 = load atomic i32, ptr %34 monotonic, align 4
  switch i32 %36, label %_ZN9QtPrivate8RefCount5derefEv.exit.i.i10 [
    i32 0, label %_ZN9QtPrivate8RefCount5derefEv.exit.thread2.i.i9
    i32 -1, label %_ZN7QStringaSEPKc.exit14
  ]

_ZN9QtPrivate8RefCount5derefEv.exit.i.i10:        ; preds = %_ZN7QStringD2Ev.exit
  %37 = atomicrmw sub ptr %34, i32 1 seq_cst, align 4
  %.not.i.i11 = icmp eq i32 %37, 1
  br i1 %.not.i.i11, label %_ZN9QtPrivate8RefCount5derefEv.exit._ZN9QtPrivate8RefCount5derefEv.exit.thread2_crit_edge.i.i12, label %_ZN7QStringaSEPKc.exit14

_ZN9QtPrivate8RefCount5derefEv.exit._ZN9QtPrivate8RefCount5derefEv.exit.thread2_crit_edge.i.i12: ; preds = %_ZN9QtPrivate8RefCount5derefEv.exit.i.i10
  %.pre.i.i13 = load ptr, ptr %2, align 8
  br label %_ZN9QtPrivate8RefCount5derefEv.exit.thread2.i.i9

_ZN9QtPrivate8RefCount5derefEv.exit.thread2.i.i9: ; preds = %_ZN9QtPrivate8RefCount5derefEv.exit._ZN9QtPrivate8RefCount5derefEv.exit.thread2_crit_edge.i.i12, %_ZN7QStringD2Ev.exit
  %38 = phi ptr [ %.pre.i.i13, %_ZN9QtPrivate8RefCount5derefEv.exit._ZN9QtPrivate8RefCount5derefEv.exit.thread2_crit_edge.i.i12 ], [ %34, %_ZN7QStringD2Ev.exit ]
  call void @_ZN10QArrayData10deallocateEPS_mm(ptr noundef %38, i64 noundef 2, i64 noundef 8) #21
  br label %_ZN7QStringaSEPKc.exit14

_ZN7QStringaSEPKc.exit14:                         ; preds = %_ZN7QStringD2Ev.exit, %_ZN9QtPrivate8RefCount5derefEv.exit.i.i10, %_ZN9QtPrivate8RefCount5derefEv.exit.thread2.i.i9
  call void @llvm.lifetime.end.p0(i64 8, ptr nonnull %2)
  %39 = getelementptr inbounds i8, ptr %0, i64 64
  %40 = load ptr, ptr %39, align 8
  call void @_ZN7QWidget6updateEv(ptr noundef nonnull align 8 dereferenceable(48) %40)
  br label %41

41:                                               ; preds = %_ZN7QStringaSEPKc.exit14, %_ZN7QStringaSEPKc.exit8
  ret void

42:                                               ; preds = %26
  %43 = landingpad { ptr, i32 }
          cleanup
  call void @_ZN7QStringD2Ev(ptr noundef nonnull align 8 dereferenceable(8) %5) #21
  resume { ptr, i32 } %43
}